(lp1
(lp2
(I15
S'right'
p3
I0
I16
tp4
a(I16
g3
I0
I17
tp5
a(I17
S'left'
p6
I0
I16
tp7
a(I16
g3
I0
I17
tp8
a(I17
g6
I0
I16
tp9
a(I16
g6
I0
I17
tp10
a(I17
g3
I0
I18
tp11
a(I18
g3
I0
I19
tp12
a(I19
g6
I0
I18
tp13
a(I18
g6
I0
I17
tp14
aa(lp15
(I14
g6
I0
I13
tp16
a(I13
g3
I0
I14
tp17
a(I14
g6
I0
I13
tp18
a(I13
g3
I0
I14
tp19
a(I14
g6
I0
I15
tp20
a(I15
g3
I0
I16
tp21
a(I16
g6
I0
I15
tp22
a(I15
g6
I0
I14
tp23
a(I14
g3
I0
I15
tp24
a(I15
g6
I0
I14
tp25
aa(lp26
(I18
g3
I0
I19
tp27
a(I19
g6
I0
I18
tp28
a(I18
g6
I0
I17
tp29
a(I17
g6
I0
I16
tp30
a(I16
g6
I0
I15
tp31
a(I15
g3
I0
I14
tp32
a(I14
g6
I0
I13
tp33
a(I13
g3
I0
I14
tp34
a(I14
g3
I0
I15
tp35
a(I15
g6
I0
I14
tp36
aa(lp37
(I11
g6
I0
I10
tp38
a(I10
g6
I0
I9
tp39
a(I9
g6
I0
I8
tp40
a(I8
g3
I0
I9
tp41
a(I9
g6
I0
I8
tp42
a(I8
g6
I0
I7
tp43
a(I7
g6
I0
I6
tp44
a(I6
g3
I0
I7
tp45
a(I7
g6
I0
I6
tp46
a(I6
g3
I0
I7
tp47
aa(lp48
(I13
g6
I0
I12
tp49
a(I12
g6
I0
I11
tp50
a(I11
g3
I0
I12
tp51
a(I12
g6
I0
I11
tp52
a(I11
g3
I0
I12
tp53
a(I12
g6
I0
I11
tp54
a(I11
g6
I0
I10
tp55
a(I10
g6
I0
I9
tp56
a(I9
g3
I0
I10
tp57
a(I10
g6
I0
I9
tp58
aa(lp59
(I13
g3
I0
I14
tp60
a(I14
g3
I0
I15
tp61
a(I15
g6
I0
I14
tp62
a(I14
g3
I0
I15
tp63
a(I15
g6
I0
I14
tp64
a(I14
g3
I0
I15
tp65
a(I15
g6
I0
I14
tp66
a(I14
g3
I0
I15
tp67
a(I15
g3
I0
I16
tp68
a(I16
g6
I0
I15
tp69
aa(lp70
(I16
g6
I0
I15
tp71
a(I15
g6
I0
I14
tp72
a(I14
g3
I0
I15
tp73
a(I15
g6
I0
I14
tp74
a(I14
g6
I0
I13
tp75
a(I13
g6
I0
I12
tp76
a(I12
g3
I0
I13
tp77
a(I13
g6
I0
I12
tp78
a(I12
g3
I0
I13
tp79
a(I13
g3
I0
I14
tp80
aa(lp81
(I11
g3
I0
I12
tp82
a(I12
g3
I0
I13
tp83
a(I13
g3
I0
I14
tp84
a(I14
g3
I0
I15
tp85
a(I15
g3
I0
I16
tp86
a(I16
g6
I0
I15
tp87
a(I15
g6
I0
I14
tp88
a(I14
g6
I0
I13
tp89
a(I13
g3
I0
I14
tp90
a(I14
g3
I0
I15
tp91
aa(lp92
(I3
g6
I0
I2
tp93
a(I2
g3
I0
I3
tp94
a(I3
g6
I0
I2
tp95
a(I2
g6
I1
I1
tp96
a(I1
g3
I0
I2
tp97
a(I2
g3
I0
I3
tp98
a(I3
g6
I0
I2
tp99
a(I2
g6
I1
I1
tp100
a(I1
g3
I0
I2
tp101
a(I2
g3
I0
I3
tp102
aa(lp103
(I8
g3
I0
I9
tp104
a(I9
g3
I0
I10
tp105
a(I10
g6
I0
I9
tp106
a(I9
g6
I0
I8
tp107
a(I8
g6
I0
I7
tp108
a(I7
g6
I0
I6
tp109
a(I6
g3
I0
I7
tp110
a(I7
g6
I0
I6
tp111
a(I6
g6
I0
I5
tp112
a(I5
g6
I0
I4
tp113
aa(lp114
(I2
g3
I0
I3
tp115
a(I3
g3
I0
I4
tp116
a(I4
g3
I0
I5
tp117
a(I5
g3
I0
I6
tp118
a(I6
g6
I0
I5
tp119
a(I5
g6
I0
I4
tp120
a(I4
g3
I0
I5
tp121
a(I5
g6
I0
I4
tp122
a(I4
g3
I0
I5
tp123
a(I5
g6
I0
I4
tp124
aa(lp125
(I1
g6
I1
I1
tp126
a(I1
g3
I1
I1
tp127
a(I1
g3
I0
I2
tp128
a(I2
g6
I1
I1
tp129
a(I1
g3
I0
I2
tp130
a(I2
g6
I1
I1
tp131
a(I1
g3
I0
I2
tp132
a(I2
g3
I0
I3
tp133
a(I3
g3
I0
I4
tp134
a(I4
g6
I0
I3
tp135
aa(lp136
(I2
g3
I0
I3
tp137
a(I3
g3
I0
I4
tp138
a(I4
g3
I0
I5
tp139
a(I5
g3
I0
I4
tp140
a(I4
g6
I0
I3
tp141
a(I3
g6
I0
I2
tp142
a(I2
g6
I1
I1
tp143
a(I1
g6
I0
I2
tp144
a(I2
g3
I0
I3
tp145
a(I3
g6
I0
I2
tp146
aa(lp147
(I9
g6
I0
I8
tp148
a(I8
g3
I0
I7
tp149
a(I7
g3
I0
I8
tp150
a(I8
g3
I0
I9
tp151
a(I9
g3
I0
I8
tp152
a(I8
g6
I0
I7
tp153
a(I7
g3
I0
I8
tp154
a(I8
g3
I0
I9
tp155
a(I9
g3
I0
I8
tp156
a(I8
g6
I0
I7
tp157
aa(lp158
(I19
g6
I0
I18
tp159
a(I18
g3
I0
I19
tp160
a(I19
g3
I1
I20
tp161
a(I20
g3
I1
I20
tp162
a(I20
g6
I0
I19
tp163
a(I19
g6
I0
I18
tp164
a(I18
g3
I0
I17
tp165
a(I17
g3
I0
I18
tp166
a(I18
g3
I0
I19
tp167
a(I19
g3
I1
I20
tp168
aa(lp169
(I2
g6
I1
I1
tp170
a(I1
g6
I1
I1
tp171
a(I1
g6
I1
I1
tp172
a(I1
g3
I0
I2
tp173
a(I2
g6
I1
I1
tp174
a(I1
g3
I0
I2
tp175
a(I2
g3
I0
I3
tp176
a(I3
g3
I0
I4
tp177
a(I4
g6
I0
I3
tp178
a(I3
g6
I0
I2
tp179
aa(lp180
(I4
g3
I0
I3
tp181
a(I3
g3
I0
I4
tp182
a(I4
g6
I0
I3
tp183
a(I3
g3
I0
I4
tp184
a(I4
g6
I0
I3
tp185
a(I3
g3
I0
I4
tp186
a(I4
g6
I0
I3
tp187
a(I3
g6
I0
I2
tp188
a(I2
g3
I0
I3
tp189
a(I3
g3
I0
I4
tp190
aa(lp191
(I13
g6
I0
I12
tp192
a(I12
g6
I0
I11
tp193
a(I11
g3
I0
I12
tp194
a(I12
g6
I0
I11
tp195
a(I11
g6
I0
I10
tp196
a(I10
g3
I0
I11
tp197
a(I11
g3
I0
I12
tp198
a(I12
g6
I0
I11
tp199
a(I11
g6
I0
I10
tp200
a(I10
g6
I0
I9
tp201
aa(lp202
(I4
g6
I0
I3
tp203
a(I3
g3
I0
I4
tp204
a(I4
g6
I0
I3
tp205
a(I3
g3
I0
I4
tp206
a(I4
g6
I0
I3
tp207
a(I3
g6
I0
I2
tp208
a(I2
g6
I1
I1
tp209
a(I1
g6
I1
I1
tp210
a(I1
g6
I1
I1
tp211
a(I1
g3
I0
I2
tp212
aa(lp213
(I8
g3
I0
I9
tp214
a(I9
g3
I0
I10
tp215
a(I10
g3
I0
I11
tp216
a(I11
g6
I0
I10
tp217
a(I10
g6
I0
I9
tp218
a(I9
g3
I0
I10
tp219
a(I10
g3
I0
I11
tp220
a(I11
g6
I0
I10
tp221
a(I10
g6
I0
I9
tp222
a(I9
g6
I0
I10
tp223
aa(lp224
(I19
g3
I1
I20
tp225
a(I20
g3
I1
I20
tp226
a(I20
g3
I1
I20
tp227
a(I20
g6
I0
I19
tp228
a(I19
g3
I1
I20
tp229
a(I20
g3
I1
I20
tp230
a(I20
g3
I0
I19
tp231
a(I19
g3
I1
I20
tp232
a(I20
g6
I0
I19
tp233
a(I19
g6
I0
I18
tp234
aa(lp235
(I1
g6
I1
I1
tp236
a(I1
g3
I1
I1
tp237
a(I1
g3
I0
I2
tp238
a(I2
g3
I1
I1
tp239
a(I1
g6
I1
I1
tp240
a(I1
g6
I1
I1
tp241
a(I1
g6
I1
I1
tp242
a(I1
g6
I1
I1
tp243
a(I1
g3
I0
I2
tp244
a(I2
g6
I1
I1
tp245
aa(lp246
(I6
g3
I0
I7
tp247
a(I7
g6
I0
I6
tp248
a(I6
g6
I0
I5
tp249
a(I5
g3
I0
I6
tp250
a(I6
g3
I0
I7
tp251
a(I7
g6
I0
I6
tp252
a(I6
g6
I0
I5
tp253
a(I5
g6
I0
I6
tp254
a(I6
g6
I0
I5
tp255
a(I5
g6
I0
I6
tp256
aa(lp257
(I5
g3
I0
I6
tp258
a(I6
g6
I0
I5
tp259
a(I5
g3
I0
I6
tp260
a(I6
g6
I0
I5
tp261
a(I5
g3
I0
I6
tp262
a(I6
g3
I0
I7
tp263
a(I7
g6
I0
I6
tp264
a(I6
g6
I0
I5
tp265
a(I5
g3
I0
I6
tp266
a(I6
g3
I0
I7
tp267
aa(lp268
(I1
g6
I1
I1
tp269
a(I1
g3
I0
I2
tp270
a(I2
g6
I1
I1
tp271
a(I1
g3
I0
I2
tp272
a(I2
g6
I1
I1
tp273
a(I1
g3
I0
I2
tp274
a(I2
g3
I0
I3
tp275
a(I3
g3
I0
I4
tp276
a(I4
g3
I0
I5
tp277
a(I5
g6
I0
I6
tp278
aa(lp279
(I5
g3
I0
I6
tp280
a(I6
g6
I0
I5
tp281
a(I5
g3
I0
I6
tp282
a(I6
g3
I0
I7
tp283
a(I7
g6
I0
I6
tp284
a(I6
g3
I0
I7
tp285
a(I7
g3
I0
I6
tp286
a(I6
g3
I0
I7
tp287
a(I7
g3
I0
I8
tp288
a(I8
g6
I0
I7
tp289
aa(lp290
(I1
g3
I0
I2
tp291
a(I2
g6
I1
I1
tp292
a(I1
g3
I0
I2
tp293
a(I2
g6
I1
I1
tp294
a(I1
g6
I1
I1
tp295
a(I1
g6
I1
I1
tp296
a(I1
g3
I0
I2
tp297
a(I2
g3
I0
I3
tp298
a(I3
g6
I0
I2
tp299
a(I2
g3
I0
I3
tp300
aa(lp301
(I14
g3
I0
I15
tp302
a(I15
g3
I0
I16
tp303
a(I16
g3
I0
I17
tp304
a(I17
g3
I0
I16
tp305
a(I16
g3
I0
I15
tp306
a(I15
g3
I0
I16
tp307
a(I16
g6
I0
I15
tp308
a(I15
g3
I0
I16
tp309
a(I16
g6
I0
I15
tp310
a(I15
g6
I0
I14
tp311
aa(lp312
(I17
g6
I0
I16
tp313
a(I16
g6
I0
I15
tp314
a(I15
g6
I0
I14
tp315
a(I14
g3
I0
I13
tp316
a(I13
g3
I0
I14
tp317
a(I14
g3
I0
I15
tp318
a(I15
g3
I0
I16
tp319
a(I16
g3
I0
I17
tp320
a(I17
g6
I0
I16
tp321
a(I16
g6
I0
I15
tp322
aa(lp323
(I6
g6
I0
I5
tp324
a(I5
g6
I0
I4
tp325
a(I4
g3
I0
I5
tp326
a(I5
g3
I0
I6
tp327
a(I6
g6
I0
I5
tp328
a(I5
g3
I0
I6
tp329
a(I6
g3
I0
I7
tp330
a(I7
g3
I0
I8
tp331
a(I8
g6
I0
I7
tp332
a(I7
g6
I0
I6
tp333
aa(lp334
(I15
g6
I0
I14
tp335
a(I14
g3
I0
I15
tp336
a(I15
g6
I0
I14
tp337
a(I14
g3
I0
I15
tp338
a(I15
g3
I0
I16
tp339
a(I16
g6
I0
I15
tp340
a(I15
g3
I0
I16
tp341
a(I16
g6
I0
I15
tp342
a(I15
g6
I0
I14
tp343
a(I14
g6
I0
I13
tp344
aa(lp345
(I2
g6
I1
I1
tp346
a(I1
g6
I1
I1
tp347
a(I1
g6
I1
I1
tp348
a(I1
g3
I0
I2
tp349
a(I2
g3
I1
I1
tp350
a(I1
g6
I1
I1
tp351
a(I1
g6
I1
I1
tp352
a(I1
g3
I0
I2
tp353
a(I2
g6
I1
I1
tp354
a(I1
g6
I1
I1
tp355
aa(lp356
(I7
g3
I0
I8
tp357
a(I8
g3
I0
I9
tp358
a(I9
g3
I0
I10
tp359
a(I10
g6
I0
I9
tp360
a(I9
g6
I0
I8
tp361
a(I8
g3
I0
I9
tp362
a(I9
g3
I0
I10
tp363
a(I10
g3
I0
I11
tp364
a(I11
g6
I0
I10
tp365
a(I10
g3
I0
I9
tp366
aa(lp367
(I15
g6
I0
I14
tp368
a(I14
g3
I0
I15
tp369
a(I15
g6
I0
I14
tp370
a(I14
g6
I0
I13
tp371
a(I13
g3
I0
I14
tp372
a(I14
g3
I0
I15
tp373
a(I15
g6
I0
I14
tp374
a(I14
g6
I0
I13
tp375
a(I13
g3
I0
I14
tp376
a(I14
g6
I0
I13
tp377
aa(lp378
(I13
g6
I0
I12
tp379
a(I12
g6
I0
I13
tp380
a(I13
g6
I0
I12
tp381
a(I12
g6
I0
I11
tp382
a(I11
g3
I0
I10
tp383
a(I10
g6
I0
I9
tp384
a(I9
g3
I0
I10
tp385
a(I10
g3
I0
I11
tp386
a(I11
g6
I0
I10
tp387
a(I10
g3
I0
I11
tp388
aa(lp389
(I5
g3
I0
I6
tp390
a(I6
g3
I0
I7
tp391
a(I7
g6
I0
I6
tp392
a(I6
g6
I0
I5
tp393
a(I5
g3
I0
I6
tp394
a(I6
g3
I0
I7
tp395
a(I7
g6
I0
I6
tp396
a(I6
g6
I0
I5
tp397
a(I5
g3
I0
I6
tp398
a(I6
g6
I0
I5
tp399
aa(lp400
(I16
g3
I0
I17
tp401
a(I17
g3
I0
I16
tp402
a(I16
g6
I0
I15
tp403
a(I15
g6
I0
I14
tp404
a(I14
g3
I0
I15
tp405
a(I15
g3
I0
I16
tp406
a(I16
g3
I0
I17
tp407
a(I17
g6
I0
I16
tp408
a(I16
g3
I0
I17
tp409
a(I17
g6
I0
I16
tp410
aa(lp411
(I4
g6
I0
I3
tp412
a(I3
g6
I0
I2
tp413
a(I2
g6
I1
I1
tp414
a(I1
g3
I0
I2
tp415
a(I2
g3
I0
I3
tp416
a(I3
g6
I0
I2
tp417
a(I2
g3
I0
I3
tp418
a(I3
g3
I0
I4
tp419
a(I4
g6
I0
I3
tp420
a(I3
g6
I0
I2
tp421
aa(lp422
(I2
g3
I0
I3
tp423
a(I3
g6
I0
I2
tp424
a(I2
g3
I0
I3
tp425
a(I3
g6
I0
I4
tp426
a(I4
g3
I0
I5
tp427
a(I5
g3
I0
I6
tp428
a(I6
g6
I0
I5
tp429
a(I5
g6
I0
I4
tp430
a(I4
g6
I0
I3
tp431
a(I3
g6
I0
I2
tp432
aa(lp433
(I8
g3
I0
I9
tp434
a(I9
g6
I0
I8
tp435
a(I8
g6
I0
I7
tp436
a(I7
g6
I0
I6
tp437
a(I6
g3
I0
I7
tp438
a(I7
g3
I0
I6
tp439
a(I6
g6
I0
I5
tp440
a(I5
g6
I0
I4
tp441
a(I4
g6
I0
I3
tp442
a(I3
g3
I0
I4
tp443
aa(lp444
(I15
g6
I0
I14
tp445
a(I14
g6
I0
I13
tp446
a(I13
g6
I0
I12
tp447
a(I12
g3
I0
I13
tp448
a(I13
g6
I0
I12
tp449
a(I12
g3
I0
I13
tp450
a(I13
g3
I0
I14
tp451
a(I14
g3
I0
I15
tp452
a(I15
g6
I0
I14
tp453
a(I14
g6
I0
I13
tp454
aa(lp455
(I6
g6
I0
I5
tp456
a(I5
g6
I0
I4
tp457
a(I4
g3
I0
I5
tp458
a(I5
g6
I0
I4
tp459
a(I4
g6
I0
I3
tp460
a(I3
g3
I0
I4
tp461
a(I4
g6
I0
I3
tp462
a(I3
g3
I0
I4
tp463
a(I4
g3
I0
I5
tp464
a(I5
g3
I0
I6
tp465
aa(lp466
(I8
g3
I0
I9
tp467
a(I9
g3
I0
I10
tp468
a(I10
g3
I0
I11
tp469
a(I11
g6
I0
I10
tp470
a(I10
g6
I0
I11
tp471
a(I11
g6
I0
I10
tp472
a(I10
g6
I0
I9
tp473
a(I9
g6
I0
I8
tp474
a(I8
g6
I0
I7
tp475
a(I7
g6
I0
I6
tp476
aa(lp477
(I14
g3
I0
I15
tp478
a(I15
g3
I0
I14
tp479
a(I14
g3
I0
I15
tp480
a(I15
g3
I0
I16
tp481
a(I16
g3
I0
I17
tp482
a(I17
g3
I0
I18
tp483
a(I18
g3
I0
I19
tp484
a(I19
g6
I0
I18
tp485
a(I18
g6
I0
I17
tp486
a(I17
g3
I0
I18
tp487
aa(lp488
(I10
g3
I0
I11
tp489
a(I11
g3
I0
I12
tp490
a(I12
g3
I0
I13
tp491
a(I13
g3
I0
I14
tp492
a(I14
g6
I0
I13
tp493
a(I13
g3
I0
I14
tp494
a(I14
g6
I0
I15
tp495
a(I15
g3
I0
I16
tp496
a(I16
g6
I0
I15
tp497
a(I15
g3
I0
I16
tp498
aa(lp499
(I19
g3
I1
I20
tp500
a(I20
g6
I0
I19
tp501
a(I19
g3
I1
I20
tp502
a(I20
g3
I1
I20
tp503
a(I20
g6
I0
I19
tp504
a(I19
g6
I1
I20
tp505
a(I20
g6
I0
I19
tp506
a(I19
g3
I1
I20
tp507
a(I20
g3
I1
I20
tp508
a(I20
g3
I0
I19
tp509
aa(lp510
(I2
g3
I0
I3
tp511
a(I3
g6
I0
I2
tp512
a(I2
g6
I1
I1
tp513
a(I1
g3
I0
I2
tp514
a(I2
g3
I0
I3
tp515
a(I3
g3
I0
I4
tp516
a(I4
g3
I0
I5
tp517
a(I5
g3
I0
I6
tp518
a(I6
g6
I0
I5
tp519
a(I5
g6
I0
I4
tp520
aa(lp521
(I9
g6
I0
I8
tp522
a(I8
g6
I0
I9
tp523
a(I9
g6
I0
I8
tp524
a(I8
g3
I0
I7
tp525
a(I7
g3
I0
I8
tp526
a(I8
g6
I0
I7
tp527
a(I7
g3
I0
I8
tp528
a(I8
g3
I0
I9
tp529
a(I9
g6
I0
I8
tp530
a(I8
g6
I0
I7
tp531
aa(lp532
(I15
g3
I0
I16
tp533
a(I16
g3
I0
I17
tp534
a(I17
g3
I0
I18
tp535
a(I18
g3
I0
I19
tp536
a(I19
g6
I0
I18
tp537
a(I18
g3
I0
I17
tp538
a(I17
g6
I0
I16
tp539
a(I16
g3
I0
I17
tp540
a(I17
g3
I0
I18
tp541
a(I18
g3
I0
I19
tp542
aa(lp543
(I15
g3
I0
I16
tp544
a(I16
g6
I0
I15
tp545
a(I15
g6
I0
I14
tp546
a(I14
g3
I0
I15
tp547
a(I15
g3
I0
I16
tp548
a(I16
g3
I0
I17
tp549
a(I17
g3
I0
I18
tp550
a(I18
g3
I0
I19
tp551
a(I19
g3
I1
I20
tp552
a(I20
g6
I0
I19
tp553
aa(lp554
(I20
g6
I0
I19
tp555
a(I19
g6
I0
I18
tp556
a(I18
g6
I0
I17
tp557
a(I17
g6
I0
I16
tp558
a(I16
g6
I0
I15
tp559
a(I15
g3
I0
I16
tp560
a(I16
g3
I0
I17
tp561
a(I17
g6
I0
I16
tp562
a(I16
g6
I0
I15
tp563
a(I15
g3
I0
I16
tp564
aa(lp565
(I13
g6
I0
I12
tp566
a(I12
g3
I0
I13
tp567
a(I13
g3
I0
I12
tp568
a(I12
g3
I0
I13
tp569
a(I13
g6
I0
I14
tp570
a(I14
g3
I0
I15
tp571
a(I15
g6
I0
I14
tp572
a(I14
g3
I0
I15
tp573
a(I15
g3
I0
I16
tp574
a(I16
g3
I0
I17
tp575
aa(lp576
(I11
g3
I0
I10
tp577
a(I10
g6
I0
I9
tp578
a(I9
g3
I0
I10
tp579
a(I10
g3
I0
I11
tp580
a(I11
g6
I0
I10
tp581
a(I10
g6
I0
I11
tp582
a(I11
g3
I0
I12
tp583
a(I12
g3
I0
I13
tp584
a(I13
g6
I0
I12
tp585
a(I12
g3
I0
I11
tp586
aa(lp587
(I13
g3
I0
I14
tp588
a(I14
g3
I0
I15
tp589
a(I15
g6
I0
I14
tp590
a(I14
g3
I0
I15
tp591
a(I15
g6
I0
I14
tp592
a(I14
g6
I0
I13
tp593
a(I13
g3
I0
I12
tp594
a(I12
g6
I0
I11
tp595
a(I11
g6
I0
I10
tp596
a(I10
g3
I0
I9
tp597
aa(lp598
(I11
g6
I0
I10
tp599
a(I10
g6
I0
I11
tp600
a(I11
g6
I0
I10
tp601
a(I10
g3
I0
I11
tp602
a(I11
g6
I0
I10
tp603
a(I10
g6
I0
I9
tp604
a(I9
g6
I0
I8
tp605
a(I8
g3
I0
I9
tp606
a(I9
g3
I0
I10
tp607
a(I10
g3
I0
I11
tp608
aa(lp609
(I14
g3
I0
I15
tp610
a(I15
g6
I0
I14
tp611
a(I14
g3
I0
I15
tp612
a(I15
g3
I0
I16
tp613
a(I16
g3
I0
I15
tp614
a(I15
g6
I0
I14
tp615
a(I14
g6
I0
I13
tp616
a(I13
g3
I0
I14
tp617
a(I14
g3
I0
I13
tp618
a(I13
g6
I0
I12
tp619
aa(lp620
(I14
g6
I0
I13
tp621
a(I13
g6
I0
I12
tp622
a(I12
g3
I0
I13
tp623
a(I13
g3
I0
I14
tp624
a(I14
g3
I0
I13
tp625
a(I13
g3
I0
I14
tp626
a(I14
g6
I0
I13
tp627
a(I13
g6
I0
I14
tp628
a(I14
g3
I0
I15
tp629
a(I15
g6
I0
I14
tp630
aa(lp631
(I15
g6
I0
I14
tp632
a(I14
g3
I0
I15
tp633
a(I15
g6
I0
I14
tp634
a(I14
g3
I0
I15
tp635
a(I15
g6
I0
I14
tp636
a(I14
g3
I0
I13
tp637
a(I13
g6
I0
I12
tp638
a(I12
g6
I0
I11
tp639
a(I11
g6
I0
I10
tp640
a(I10
g6
I0
I9
tp641
aa(lp642
(I4
g3
I0
I3
tp643
a(I3
g3
I0
I4
tp644
a(I4
g6
I0
I3
tp645
a(I3
g3
I0
I2
tp646
a(I2
g6
I1
I1
tp647
a(I1
g3
I0
I2
tp648
a(I2
g6
I1
I1
tp649
a(I1
g6
I1
I1
tp650
a(I1
g3
I0
I2
tp651
a(I2
g3
I0
I3
tp652
aa(lp653
(I2
g6
I0
I3
tp654
a(I3
g6
I0
I2
tp655
a(I2
g3
I0
I3
tp656
a(I3
g3
I0
I4
tp657
a(I4
g3
I0
I5
tp658
a(I5
g6
I0
I6
tp659
a(I6
g3
I0
I7
tp660
a(I7
g3
I0
I8
tp661
a(I8
g3
I0
I9
tp662
a(I9
g3
I0
I10
tp663
aa(lp664
(I20
g6
I0
I19
tp665
a(I19
g3
I0
I18
tp666
a(I18
g3
I0
I19
tp667
a(I19
g6
I0
I18
tp668
a(I18
g3
I0
I19
tp669
a(I19
g3
I0
I18
tp670
a(I18
g6
I0
I17
tp671
a(I17
g6
I0
I16
tp672
a(I16
g6
I0
I15
tp673
a(I15
g3
I0
I16
tp674
aa(lp675
(I16
g3
I0
I17
tp676
a(I17
g3
I0
I18
tp677
a(I18
g3
I0
I19
tp678
a(I19
g6
I0
I18
tp679
a(I18
g6
I0
I17
tp680
a(I17
g3
I0
I18
tp681
a(I18
g3
I0
I19
tp682
a(I19
g3
I1
I20
tp683
a(I20
g6
I0
I19
tp684
a(I19
g3
I1
I20
tp685
aa(lp686
(I20
g6
I1
I20
tp687
a(I20
g6
I0
I19
tp688
a(I19
g3
I1
I20
tp689
a(I20
g6
I1
I20
tp690
a(I20
g6
I0
I19
tp691
a(I19
g3
I1
I20
tp692
a(I20
g3
I1
I20
tp693
a(I20
g6
I0
I19
tp694
a(I19
g6
I0
I18
tp695
a(I18
g3
I0
I19
tp696
aa(lp697
(I7
g3
I0
I8
tp698
a(I8
g3
I0
I9
tp699
a(I9
g3
I0
I10
tp700
a(I10
g3
I0
I11
tp701
a(I11
g6
I0
I10
tp702
a(I10
g6
I0
I9
tp703
a(I9
g6
I0
I8
tp704
a(I8
g6
I0
I7
tp705
a(I7
g6
I0
I6
tp706
a(I6
g6
I0
I5
tp707
aa(lp708
(I3
g3
I0
I4
tp709
a(I4
g6
I0
I3
tp710
a(I3
g6
I0
I2
tp711
a(I2
g3
I0
I3
tp712
a(I3
g6
I0
I2
tp713
a(I2
g6
I1
I1
tp714
a(I1
g6
I1
I1
tp715
a(I1
g3
I0
I2
tp716
a(I2
g6
I0
I3
tp717
a(I3
g3
I0
I4
tp718
aa(lp719
(I13
g3
I0
I14
tp720
a(I14
g6
I0
I13
tp721
a(I13
g3
I0
I14
tp722
a(I14
g6
I0
I13
tp723
a(I13
g3
I0
I14
tp724
a(I14
g3
I0
I15
tp725
a(I15
g6
I0
I14
tp726
a(I14
g6
I0
I13
tp727
a(I13
g3
I0
I14
tp728
a(I14
g6
I0
I13
tp729
aa(lp730
(I4
g3
I0
I5
tp731
a(I5
g6
I0
I4
tp732
a(I4
g6
I0
I3
tp733
a(I3
g3
I0
I2
tp734
a(I2
g6
I1
I1
tp735
a(I1
g3
I0
I2
tp736
a(I2
g3
I0
I3
tp737
a(I3
g6
I0
I2
tp738
a(I2
g3
I0
I3
tp739
a(I3
g6
I0
I2
tp740
aa(lp741
(I2
g6
I1
I1
tp742
a(I1
g6
I1
I1
tp743
a(I1
g6
I1
I1
tp744
a(I1
g6
I1
I1
tp745
a(I1
g3
I0
I2
tp746
a(I2
g6
I1
I1
tp747
a(I1
g3
I0
I2
tp748
a(I2
g6
I0
I3
tp749
a(I3
g6
I0
I2
tp750
a(I2
g6
I1
I1
tp751
aa(lp752
(I19
g6
I0
I18
tp753
a(I18
g6
I0
I17
tp754
a(I17
g3
I0
I18
tp755
a(I18
g3
I0
I19
tp756
a(I19
g6
I0
I18
tp757
a(I18
g3
I0
I17
tp758
a(I17
g6
I0
I16
tp759
a(I16
g3
I0
I17
tp760
a(I17
g3
I0
I18
tp761
a(I18
g6
I0
I17
tp762
aa(lp763
(I9
g3
I0
I10
tp764
a(I10
g6
I0
I9
tp765
a(I9
g3
I0
I8
tp766
a(I8
g3
I0
I9
tp767
a(I9
g6
I0
I8
tp768
a(I8
g3
I0
I7
tp769
a(I7
g3
I0
I8
tp770
a(I8
g6
I0
I9
tp771
a(I9
g6
I0
I8
tp772
a(I8
g6
I0
I7
tp773
aa(lp774
(I8
g6
I0
I7
tp775
a(I7
g3
I0
I8
tp776
a(I8
g3
I0
I9
tp777
a(I9
g3
I0
I8
tp778
a(I8
g6
I0
I7
tp779
a(I7
g3
I0
I8
tp780
a(I8
g6
I0
I7
tp781
a(I7
g3
I0
I8
tp782
a(I8
g6
I0
I7
tp783
a(I7
g3
I0
I8
tp784
aa(lp785
(I14
g6
I0
I15
tp786
a(I15
g3
I0
I14
tp787
a(I14
g3
I0
I15
tp788
a(I15
g3
I0
I16
tp789
a(I16
g3
I0
I17
tp790
a(I17
g6
I0
I16
tp791
a(I16
g3
I0
I17
tp792
a(I17
g3
I0
I18
tp793
a(I18
g6
I0
I17
tp794
a(I17
g3
I0
I18
tp795
aa(lp796
(I18
g6
I0
I17
tp797
a(I17
g3
I0
I18
tp798
a(I18
g3
I0
I19
tp799
a(I19
g6
I0
I18
tp800
a(I18
g6
I0
I17
tp801
a(I17
g3
I0
I18
tp802
a(I18
g6
I0
I17
tp803
a(I17
g6
I0
I16
tp804
a(I16
g6
I0
I15
tp805
a(I15
g6
I0
I14
tp806
aa(lp807
(I7
g3
I0
I8
tp808
a(I8
g3
I0
I9
tp809
a(I9
g6
I0
I10
tp810
a(I10
g6
I0
I9
tp811
a(I9
g3
I0
I10
tp812
a(I10
g3
I0
I11
tp813
a(I11
g3
I0
I12
tp814
a(I12
g6
I0
I11
tp815
a(I11
g6
I0
I10
tp816
a(I10
g3
I0
I11
tp817
aa(lp818
(I8
g3
I0
I9
tp819
a(I9
g6
I0
I8
tp820
a(I8
g6
I0
I7
tp821
a(I7
g3
I0
I8
tp822
a(I8
g6
I0
I7
tp823
a(I7
g6
I0
I6
tp824
a(I6
g3
I0
I7
tp825
a(I7
g3
I0
I8
tp826
a(I8
g3
I0
I9
tp827
a(I9
g3
I0
I10
tp828
aa(lp829
(I7
g3
I0
I8
tp830
a(I8
g3
I0
I9
tp831
a(I9
g3
I0
I10
tp832
a(I10
g6
I0
I9
tp833
a(I9
g6
I0
I10
tp834
a(I10
g6
I0
I9
tp835
a(I9
g3
I0
I10
tp836
a(I10
g6
I0
I11
tp837
a(I11
g3
I0
I10
tp838
a(I10
g6
I0
I9
tp839
aa(lp840
(I8
g3
I0
I9
tp841
a(I9
g3
I0
I10
tp842
a(I10
g6
I0
I9
tp843
a(I9
g3
I0
I10
tp844
a(I10
g6
I0
I9
tp845
a(I9
g3
I0
I10
tp846
a(I10
g6
I0
I9
tp847
a(I9
g3
I0
I10
tp848
a(I10
g6
I0
I9
tp849
a(I9
g6
I0
I8
tp850
aa(lp851
(I4
g6
I0
I5
tp852
a(I5
g6
I0
I6
tp853
a(I6
g6
I0
I5
tp854
a(I5
g6
I0
I4
tp855
a(I4
g3
I0
I5
tp856
a(I5
g6
I0
I4
tp857
a(I4
g3
I0
I5
tp858
a(I5
g3
I0
I6
tp859
a(I6
g3
I0
I7
tp860
a(I7
g6
I0
I6
tp861
aa(lp862
(I13
g6
I0
I12
tp863
a(I12
g3
I0
I13
tp864
a(I13
g3
I0
I14
tp865
a(I14
g3
I0
I15
tp866
a(I15
g6
I0
I14
tp867
a(I14
g3
I0
I15
tp868
a(I15
g6
I0
I14
tp869
a(I14
g6
I0
I13
tp870
a(I13
g3
I0
I14
tp871
a(I14
g3
I0
I15
tp872
aa(lp873
(I11
g6
I0
I10
tp874
a(I10
g3
I0
I11
tp875
a(I11
g3
I0
I10
tp876
a(I10
g3
I0
I11
tp877
a(I11
g3
I0
I12
tp878
a(I12
g3
I0
I13
tp879
a(I13
g6
I0
I14
tp880
a(I14
g3
I0
I15
tp881
a(I15
g6
I0
I16
tp882
a(I16
g3
I0
I17
tp883
aa(lp884
(I5
g3
I0
I6
tp885
a(I6
g6
I0
I5
tp886
a(I5
g6
I0
I4
tp887
a(I4
g6
I0
I3
tp888
a(I3
g3
I0
I4
tp889
a(I4
g3
I0
I5
tp890
a(I5
g6
I0
I4
tp891
a(I4
g3
I0
I5
tp892
a(I5
g3
I0
I6
tp893
a(I6
g6
I0
I5
tp894
aa(lp895
(I3
g3
I0
I4
tp896
a(I4
g3
I0
I5
tp897
a(I5
g6
I0
I4
tp898
a(I4
g6
I0
I3
tp899
a(I3
g6
I0
I2
tp900
a(I2
g3
I0
I3
tp901
a(I3
g6
I0
I4
tp902
a(I4
g6
I0
I5
tp903
a(I5
g6
I0
I6
tp904
a(I6
g3
I0
I5
tp905
aa(lp906
(I6
g3
I0
I7
tp907
a(I7
g3
I0
I8
tp908
a(I8
g6
I0
I7
tp909
a(I7
g3
I0
I8
tp910
a(I8
g3
I0
I9
tp911
a(I9
g6
I0
I8
tp912
a(I8
g6
I0
I7
tp913
a(I7
g6
I0
I6
tp914
a(I6
g3
I0
I5
tp915
a(I5
g3
I0
I6
tp916
aa(lp917
(I15
g6
I0
I14
tp918
a(I14
g3
I0
I15
tp919
a(I15
g6
I0
I14
tp920
a(I14
g3
I0
I15
tp921
a(I15
g6
I0
I14
tp922
a(I14
g3
I0
I13
tp923
a(I13
g6
I0
I14
tp924
a(I14
g3
I0
I15
tp925
a(I15
g3
I0
I16
tp926
a(I16
g3
I0
I17
tp927
aa(lp928
(I19
g3
I1
I20
tp929
a(I20
g3
I1
I20
tp930
a(I20
g6
I0
I19
tp931
a(I19
g6
I0
I18
tp932
a(I18
g6
I0
I17
tp933
a(I17
g3
I0
I18
tp934
a(I18
g6
I0
I17
tp935
a(I17
g6
I0
I16
tp936
a(I16
g3
I0
I17
tp937
a(I17
g3
I0
I18
tp938
aa(lp939
(I14
g6
I0
I15
tp940
a(I15
g3
I0
I16
tp941
a(I16
g6
I0
I17
tp942
a(I17
g6
I0
I16
tp943
a(I16
g6
I0
I15
tp944
a(I15
g6
I0
I14
tp945
a(I14
g3
I0
I13
tp946
a(I13
g3
I0
I14
tp947
a(I14
g6
I0
I13
tp948
a(I13
g3
I0
I14
tp949
aa(lp950
(I8
g6
I0
I7
tp951
a(I7
g3
I0
I8
tp952
a(I8
g6
I0
I7
tp953
a(I7
g3
I0
I8
tp954
a(I8
g3
I0
I9
tp955
a(I9
g6
I0
I8
tp956
a(I8
g6
I0
I7
tp957
a(I7
g3
I0
I8
tp958
a(I8
g3
I0
I7
tp959
a(I7
g3
I0
I8
tp960
aa(lp961
(I7
g6
I0
I6
tp962
a(I6
g6
I0
I5
tp963
a(I5
g6
I0
I4
tp964
a(I4
g6
I0
I3
tp965
a(I3
g6
I0
I2
tp966
a(I2
g3
I0
I3
tp967
a(I3
g6
I0
I2
tp968
a(I2
g3
I0
I3
tp969
a(I3
g6
I0
I2
tp970
a(I2
g3
I0
I3
tp971
aa(lp972
(I2
g3
I0
I3
tp973
a(I3
g3
I0
I4
tp974
a(I4
g3
I0
I3
tp975
a(I3
g6
I0
I2
tp976
a(I2
g3
I0
I3
tp977
a(I3
g3
I0
I4
tp978
a(I4
g3
I0
I5
tp979
a(I5
g3
I0
I4
tp980
a(I4
g6
I0
I5
tp981
a(I5
g3
I0
I6
tp982
aa(lp983
(I9
g6
I0
I8
tp984
a(I8
g3
I0
I9
tp985
a(I9
g3
I0
I10
tp986
a(I10
g6
I0
I9
tp987
a(I9
g3
I0
I10
tp988
a(I10
g6
I0
I9
tp989
a(I9
g3
I0
I10
tp990
a(I10
g6
I0
I9
tp991
a(I9
g3
I0
I10
tp992
a(I10
g3
I0
I11
tp993
aa(lp994
(I3
g6
I0
I2
tp995
a(I2
g3
I0
I3
tp996
a(I3
g6
I0
I2
tp997
a(I2
g3
I0
I3
tp998
a(I3
g3
I0
I4
tp999
a(I4
g3
I0
I5
tp1000
a(I5
g3
I0
I6
tp1001
a(I6
g6
I0
I5
tp1002
a(I5
g6
I0
I4
tp1003
a(I4
g6
I0
I3
tp1004
aa(lp1005
(I12
g6
I0
I13
tp1006
a(I13
g6
I0
I12
tp1007
a(I12
g3
I0
I13
tp1008
a(I13
g6
I0
I12
tp1009
a(I12
g6
I0
I11
tp1010
a(I11
g3
I0
I12
tp1011
a(I12
g3
I0
I13
tp1012
a(I13
g6
I0
I12
tp1013
a(I12
g6
I0
I11
tp1014
a(I11
g3
I0
I12
tp1015
aa(lp1016
(I13
g6
I0
I12
tp1017
a(I12
g3
I0
I13
tp1018
a(I13
g6
I0
I12
tp1019
a(I12
g3
I0
I13
tp1020
a(I13
g3
I0
I14
tp1021
a(I14
g6
I0
I13
tp1022
a(I13
g3
I0
I14
tp1023
a(I14
g6
I0
I13
tp1024
a(I13
g6
I0
I12
tp1025
a(I12
g3
I0
I13
tp1026
aa(lp1027
(I13
g6
I0
I12
tp1028
a(I12
g3
I0
I13
tp1029
a(I13
g3
I0
I14
tp1030
a(I14
g3
I0
I15
tp1031
a(I15
g6
I0
I14
tp1032
a(I14
g3
I0
I15
tp1033
a(I15
g3
I0
I16
tp1034
a(I16
g3
I0
I17
tp1035
a(I17
g6
I0
I16
tp1036
a(I16
g6
I0
I15
tp1037
aa(lp1038
(I20
g6
I0
I19
tp1039
a(I19
g6
I0
I18
tp1040
a(I18
g3
I0
I19
tp1041
a(I19
g6
I0
I18
tp1042
a(I18
g6
I0
I17
tp1043
a(I17
g3
I0
I18
tp1044
a(I18
g6
I0
I17
tp1045
a(I17
g3
I0
I18
tp1046
a(I18
g3
I0
I19
tp1047
a(I19
g3
I1
I20
tp1048
aa(lp1049
(I15
g3
I0
I16
tp1050
a(I16
g3
I0
I15
tp1051
a(I15
g3
I0
I16
tp1052
a(I16
g3
I0
I17
tp1053
a(I17
g6
I0
I16
tp1054
a(I16
g6
I0
I15
tp1055
a(I15
g3
I0
I16
tp1056
a(I16
g3
I0
I15
tp1057
a(I15
g3
I0
I16
tp1058
a(I16
g3
I0
I17
tp1059
aa(lp1060
(I4
g6
I0
I5
tp1061
a(I5
g6
I0
I4
tp1062
a(I4
g6
I0
I3
tp1063
a(I3
g3
I0
I4
tp1064
a(I4
g3
I0
I5
tp1065
a(I5
g3
I0
I6
tp1066
a(I6
g3
I0
I7
tp1067
a(I7
g6
I0
I6
tp1068
a(I6
g3
I0
I7
tp1069
a(I7
g6
I0
I6
tp1070
aa(lp1071
(I12
g6
I0
I11
tp1072
a(I11
g3
I0
I12
tp1073
a(I12
g6
I0
I13
tp1074
a(I13
g3
I0
I14
tp1075
a(I14
g6
I0
I13
tp1076
a(I13
g3
I0
I14
tp1077
a(I14
g6
I0
I13
tp1078
a(I13
g3
I0
I14
tp1079
a(I14
g3
I0
I15
tp1080
a(I15
g3
I0
I16
tp1081
aa(lp1082
(I13
g6
I0
I12
tp1083
a(I12
g3
I0
I11
tp1084
a(I11
g6
I0
I10
tp1085
a(I10
g3
I0
I11
tp1086
a(I11
g3
I0
I12
tp1087
a(I12
g6
I0
I11
tp1088
a(I11
g6
I0
I10
tp1089
a(I10
g6
I0
I9
tp1090
a(I9
g3
I0
I10
tp1091
a(I10
g6
I0
I9
tp1092
aa(lp1093
(I16
g6
I0
I15
tp1094
a(I15
g6
I0
I14
tp1095
a(I14
g3
I0
I15
tp1096
a(I15
g6
I0
I14
tp1097
a(I14
g3
I0
I15
tp1098
a(I15
g3
I0
I16
tp1099
a(I16
g6
I0
I15
tp1100
a(I15
g6
I0
I14
tp1101
a(I14
g6
I0
I13
tp1102
a(I13
g6
I0
I12
tp1103
aa.